; Function Attrs: mustprogress norecurse uwtable
define internal fastcc void @_ZN2cvlsERSoRKNS_3MatE(ptr noundef nonnull align 8 dereferenceable(96) %0) unnamed_addr #3 personality ptr @__gxx_personality_v0 {
  %2 = alloca %"struct.cv::Ptr.5", align 8
  %3 = alloca %"struct.cv::Ptr.9", align 8
  call void @_ZN2cv9Formatter3getENS0_10FormatTypeE(ptr dead_on_unwind nonnull writable sret(%"struct.cv::Ptr.9") align 8 %3, i32 noundef 0)
  %4 = load ptr, ptr %3, align 8
  %5 = load ptr, ptr %4, align 8
  %6 = getelementptr inbounds i8, ptr %5, i64 16
  %7 = load ptr, ptr %6, align 8
  invoke void %7(ptr dead_on_unwind nonnull writable sret(%"struct.cv::Ptr.5") align 8 %2, ptr noundef nonnull align 8 dereferenceable(8) %4, ptr noundef nonnull align 8 dereferenceable(96) %0)
          to label %8 unwind label %94

8:                                                ; preds = %1
  %9 = load ptr, ptr %2, align 8
  %10 = load ptr, ptr %9, align 8
  %11 = getelementptr inbounds i8, ptr %10, i64 8
  %12 = load ptr, ptr %11, align 8
  invoke void %12(ptr noundef nonnull align 8 dereferenceable(8) %9)
          to label %.noexc unwind label %.loopexit.split-lp

.noexc:                                           ; preds = %8
  %13 = load ptr, ptr %2, align 8
  %14 = load ptr, ptr %13, align 8
  %15 = load ptr, ptr %14, align 8
  %16 = invoke noundef ptr %15(ptr noundef nonnull align 8 dereferenceable(8) %13)
          to label %.noexc5 unwind label %.loopexit.split-lp

.noexc5:                                          ; preds = %.noexc
  %.not1.i = icmp eq ptr %16, null
  br i1 %.not1.i, label %_ZN2cvlsERSoNS_3PtrINS_9FormattedEEE.exit, label %.lr.ph.i

.lr.ph.i:                                         ; preds = %.noexc5, %.noexc7
  %.02.i = phi ptr [ %21, %.noexc7 ], [ %16, %.noexc5 ]
  %17 = invoke noundef nonnull align 8 dereferenceable(8) ptr @_ZStlsISt11char_traitsIcEERSt13basic_ostreamIcT_ES5_PKc(ptr noundef nonnull align 8 dereferenceable(8) @_ZSt4cout, ptr noundef nonnull %.02.i)
          to label %.noexc6 unwind label %.loopexit

.noexc6:                                          ; preds = %.lr.ph.i
  %18 = load ptr, ptr %2, align 8
  %19 = load ptr, ptr %18, align 8
  %20 = load ptr, ptr %19, align 8
  %21 = invoke noundef ptr %20(ptr noundef nonnull align 8 dereferenceable(8) %18)
          to label %.noexc7 unwind label %.loopexit

.noexc7:                                          ; preds = %.noexc6
  %.not.i = icmp eq ptr %21, null
  br i1 %.not.i, label %_ZN2cvlsERSoNS_3PtrINS_9FormattedEEE.exit, label %.lr.ph.i, !llvm.loop !11

_ZN2cvlsERSoNS_3PtrINS_9FormattedEEE.exit:        ; preds = %.noexc7, %.noexc5
  %22 = getelementptr inbounds i8, ptr %2, i64 8
  %23 = load ptr, ptr %22, align 8
  %.not.i.i.i.i = icmp eq ptr %23, null
  br i1 %.not.i.i.i.i, label %_ZN2cv3PtrINS_9FormattedEED2Ev.exit, label %24

24:                                               ; preds = %_ZN2cvlsERSoNS_3PtrINS_9FormattedEEE.exit
  %25 = getelementptr inbounds i8, ptr %23, i64 8
  %26 = load atomic i64, ptr %25 acquire, align 8
  %27 = icmp eq i64 %26, 4294967297
  %28 = trunc i64 %26 to i32
  br i1 %27, label %29, label %34

29:                                               ; preds = %24
  store i32 0, ptr %25, align 8
  %30 = getelementptr inbounds i8, ptr %23, i64 12
  store i32 0, ptr %30, align 4
  %31 = load ptr, ptr %23, align 8
  %32 = getelementptr inbounds i8, ptr %31, i64 16
  %33 = load ptr, ptr %32, align 8
  call void %33(ptr noundef nonnull align 8 dereferenceable(16) %23) #7
  br label %_ZNSt16_Sp_counted_baseILN9__gnu_cxx12_Lock_policyE2EE24_M_release_last_use_coldEv.exit.sink.split.i.i.i.i.i

34:                                               ; preds = %24
  %35 = load i8, ptr @__libc_single_threaded, align 1
  %.not.i.i.i.i.i = icmp eq i8 %35, 0
  br i1 %.not.i.i.i.i.i, label %38, label %36

36:                                               ; preds = %34
  %37 = add nsw i32 %28, -1
  store i32 %37, ptr %25, align 4
  br label %40

38:                                               ; preds = %34
  %39 = atomicrmw volatile add ptr %25, i32 -1 acq_rel, align 4
  br label %40

40:                                               ; preds = %38, %36
  %.0.i.i.i.i.i = phi i32 [ %28, %36 ], [ %39, %38 ]
  %41 = icmp eq i32 %.0.i.i.i.i.i, 1
  br i1 %41, label %42, label %_ZN2cv3PtrINS_9FormattedEED2Ev.exit

42:                                               ; preds = %40
  %43 = load ptr, ptr %23, align 8
  %44 = getelementptr inbounds i8, ptr %43, i64 16
  %45 = load ptr, ptr %44, align 8
  call void %45(ptr noundef nonnull align 8 dereferenceable(16) %23) #7
  %46 = getelementptr inbounds i8, ptr %23, i64 12
  %47 = load i8, ptr @__libc_single_threaded, align 1
  %.not.i.i.i.i.i.i.i = icmp eq i8 %47, 0
  br i1 %.not.i.i.i.i.i.i.i, label %51, label %48

48:                                               ; preds = %42
  %49 = load i32, ptr %46, align 4
  %50 = add nsw i32 %49, -1
  store i32 %50, ptr %46, align 4
  br label %53

51:                                               ; preds = %42
  %52 = atomicrmw volatile add ptr %46, i32 -1 acq_rel, align 4
  br label %53

53:                                               ; preds = %51, %48
  %.0.i.i.i.i.i.i.i = phi i32 [ %49, %48 ], [ %52, %51 ]
  %54 = icmp eq i32 %.0.i.i.i.i.i.i.i, 1
  br i1 %54, label %_ZNSt16_Sp_counted_baseILN9__gnu_cxx12_Lock_policyE2EE24_M_release_last_use_coldEv.exit.sink.split.i.i.i.i.i, label %_ZN2cv3PtrINS_9FormattedEED2Ev.exit

_ZNSt16_Sp_counted_baseILN9__gnu_cxx12_Lock_policyE2EE24_M_release_last_use_coldEv.exit.sink.split.i.i.i.i.i: ; preds = %53, %29
  %55 = load ptr, ptr %23, align 8
  %56 = getelementptr inbounds i8, ptr %55, i64 24
  %57 = load ptr, ptr %56, align 8
  call void %57(ptr noundef nonnull align 8 dereferenceable(16) %23) #7
  br label %_ZN2cv3PtrINS_9FormattedEED2Ev.exit

_ZN2cv3PtrINS_9FormattedEED2Ev.exit:              ; preds = %_ZN2cvlsERSoNS_3PtrINS_9FormattedEEE.exit, %40, %53, %_ZNSt16_Sp_counted_baseILN9__gnu_cxx12_Lock_policyE2EE24_M_release_last_use_coldEv.exit.sink.split.i.i.i.i.i
  %58 = getelementptr inbounds i8, ptr %3, i64 8
  %59 = load ptr, ptr %58, align 8
  %.not.i.i.i.i8 = icmp eq ptr %59, null
  br i1 %.not.i.i.i.i8, label %_ZN2cv3PtrINS_9FormatterEED2Ev.exit, label %60

60:                                               ; preds = %_ZN2cv3PtrINS_9FormattedEED2Ev.exit
  %61 = getelementptr inbounds i8, ptr %59, i64 8
  %62 = load atomic i64, ptr %61 acquire, align 8
  %63 = icmp eq i64 %62, 4294967297
  %64 = trunc i64 %62 to i32
  br i1 %63, label %65, label %70

65:                                               ; preds = %60
  store i32 0, ptr %61, align 8
  %66 = getelementptr inbounds i8, ptr %59, i64 12
  store i32 0, ptr %66, align 4
  %67 = load ptr, ptr %59, align 8
  %68 = getelementptr inbounds i8, ptr %67, i64 16
  %69 = load ptr, ptr %68, align 8
  call void %69(ptr noundef nonnull align 8 dereferenceable(16) %59) #7
  br label %_ZNSt16_Sp_counted_baseILN9__gnu_cxx12_Lock_policyE2EE24_M_release_last_use_coldEv.exit.sink.split.i.i.i.i.i13

70:                                               ; preds = %60
  %71 = load i8, ptr @__libc_single_threaded, align 1
  %.not.i.i.i.i.i9 = icmp eq i8 %71, 0
  br i1 %.not.i.i.i.i.i9, label %74, label %72

72:                                               ; preds = %70
  %73 = add nsw i32 %64, -1
  store i32 %73, ptr %61, align 4
  br label %76

74:                                               ; preds = %70
  %75 = atomicrmw volatile add ptr %61, i32 -1 acq_rel, align 4
  br label %76

76:                                               ; preds = %74, %72
  %.0.i.i.i.i.i10 = phi i32 [ %64, %72 ], [ %75, %74 ]
  %77 = icmp eq i32 %.0.i.i.i.i.i10, 1
  br i1 %77, label %78, label %_ZN2cv3PtrINS_9FormatterEED2Ev.exit

78:                                               ; preds = %76
  %79 = load ptr, ptr %59, align 8
  %80 = getelementptr inbounds i8, ptr %79, i64 16
  %81 = load ptr, ptr %80, align 8
  call void %81(ptr noundef nonnull align 8 dereferenceable(16) %59) #7
  %82 = getelementptr inbounds i8, ptr %59, i64 12
  %83 = load i8, ptr @__libc_single_threaded, align 1
  %.not.i.i.i.i.i.i.i11 = icmp eq i8 %83, 0
  br i1 %.not.i.i.i.i.i.i.i11, label %87, label %84

84:                                               ; preds = %78
  %85 = load i32, ptr %82, align 4
  %86 = add nsw i32 %85, -1
  store i32 %86, ptr %82, align 4
  br label %89

87:                                               ; preds = %78
  %88 = atomicrmw volatile add ptr %82, i32 -1 acq_rel, align 4
  br label %89

89:                                               ; preds = %87, %84
  %.0.i.i.i.i.i.i.i12 = phi i32 [ %85, %84 ], [ %88, %87 ]
  %90 = icmp eq i32 %.0.i.i.i.i.i.i.i12, 1
  br i1 %90, label %_ZNSt16_Sp_counted_baseILN9__gnu_cxx12_Lock_policyE2EE24_M_release_last_use_coldEv.exit.sink.split.i.i.i.i.i13, label %_ZN2cv3PtrINS_9FormatterEED2Ev.exit

_ZNSt16_Sp_counted_baseILN9__gnu_cxx12_Lock_policyE2EE24_M_release_last_use_coldEv.exit.sink.split.i.i.i.i.i13: ; preds = %89, %65
  %91 = load ptr, ptr %59, align 8
  %92 = getelementptr inbounds i8, ptr %91, i64 24
  %93 = load ptr, ptr %92, align 8
  call void %93(ptr noundef nonnull align 8 dereferenceable(16) %59) #7
  br label %_ZN2cv3PtrINS_9FormatterEED2Ev.exit

_ZN2cv3PtrINS_9FormatterEED2Ev.exit:              ; preds = %_ZN2cv3PtrINS_9FormattedEED2Ev.exit, %76, %89, %_ZNSt16_Sp_counted_baseILN9__gnu_cxx12_Lock_policyE2EE24_M_release_last_use_coldEv.exit.sink.split.i.i.i.i.i13
  ret void

94:                                               ; preds = %1
  %95 = landingpad { ptr, i32 }
          cleanup
  br label %97

.loopexit:                                        ; preds = %.lr.ph.i, %.noexc6
  %lpad.loopexit = landingpad { ptr, i32 }
          cleanup
  br label %96

.loopexit.split-lp:                               ; preds = %8, %.noexc
  %lpad.loopexit.split-lp = landingpad { ptr, i32 }
          cleanup
  br label %96

96:                                               ; preds = %.loopexit.split-lp, %.loopexit
  %lpad.phi = phi { ptr, i32 } [ %lpad.loopexit, %.loopexit ], [ %lpad.loopexit.split-lp, %.loopexit.split-lp ]
  call void @_ZN2cv3PtrINS_9FormattedEED2Ev(ptr noundef nonnull align 8 dereferenceable(16) %2) #7
  br label %97

97:                                               ; preds = %96, %94
  %.pn = phi { ptr, i32 } [ %lpad.phi, %96 ], [ %95, %94 ]
  call void @_ZN2cv3PtrINS_9FormatterEED2Ev(ptr noundef nonnull align 8 dereferenceable(16) %3) #7
  resume { ptr, i32 } %.pn
}